; Function Attrs: mustprogress nofree norecurse nosync nounwind willreturn memory(argmem: write) uwtable
define void @png_set_flush(ptr noalias noundef writeonly %0, i32 noundef %1) local_unnamed_addr #7 {
  %3 = icmp eq ptr %0, null
  br i1 %3, label %7, label %4

4:                                                ; preds = %2
  %5 = tail call i32 @llvm.smax.i32(i32 %1, i32 0)
  %6 = getelementptr inbounds i8, ptr %0, i64 664
  store i32 %5, ptr %6, align 8
  br label %7

7:                                                ; preds = %2, %4
  ret void
}